target datalayout = "e-m:e-p270:32:32-p271:32:32-p272:64:64-i64:64-i128:128-f80:128-n8:16:32:64-S128"
target triple = "x86_64-pc-linux-gnu"

%struct.wl_interface = type { ptr, i32, i32, ptr, i32, ptr }
%struct.SDL_WaylandSeat = type { ptr, ptr, ptr, ptr, ptr, %struct.wl_list, i32, i32, %struct.anon.1, %struct.anon.3, %struct.anon.6, %struct.anon.7, %struct.anon.8 }
%struct.wl_list = type { ptr, ptr }
%struct.anon.1 = type { ptr, ptr, ptr, ptr, ptr, %struct.SDL_WaylandKeyboardRepeat, i64, i16, i16, i32, i8, %struct.anon.2 }
%struct.SDL_WaylandKeyboardRepeat = type { i32, i32, i32, i8, i8, i32, i64, i64, i64, i32, [8 x i8] }
%struct.anon.2 = type { ptr, ptr, ptr, ptr, i32, i32, i32, i32, i32, i32, i32, i32, i32, i32, i32 }
%struct.anon.3 = type { ptr, ptr, ptr, ptr, ptr, ptr, ptr, ptr, i64, i32, i32, %struct.SDL_Point, i32, %struct.anon.4, %struct.anon.5 }
%struct.SDL_Point = type { i32, i32 }
%struct.anon.4 = type { i32, float, i32, float, i64, i32 }
%struct.anon.5 = type { ptr, ptr, ptr, i64, i64, i32 }
%struct.anon.6 = type { ptr, ptr, i64, %struct.wl_list }
%struct.anon.7 = type { ptr, %struct.SDL_Rect, i8, i8 }
%struct.SDL_Rect = type { i32, i32, i32, i32 }
%struct.anon.8 = type { ptr, %struct.wl_list }
%struct.SDL_VideoDevice = type { ptr, ptr, ptr, ptr, ptr, ptr, ptr, ptr, ptr, ptr, ptr, ptr, ptr, ptr, ptr, ptr, ptr, ptr, ptr, ptr, ptr, ptr, ptr, ptr, ptr, ptr, ptr, ptr, ptr, ptr, ptr, ptr, ptr, ptr, ptr, ptr, ptr, ptr, ptr, ptr, ptr, ptr, ptr, ptr, ptr, ptr, ptr, ptr, ptr, ptr, ptr, ptr, ptr, ptr, ptr, ptr, ptr, ptr, ptr, ptr, ptr, ptr, ptr, ptr, ptr, ptr, ptr, ptr, ptr, ptr, ptr, ptr, ptr, ptr, ptr, ptr, ptr, ptr, ptr, ptr, ptr, ptr, ptr, ptr, ptr, ptr, ptr, ptr, ptr, ptr, ptr, ptr, ptr, ptr, ptr, ptr, ptr, i64, i8, i8, i8, ptr, i32, ptr, %struct.SDL_Rect, ptr, ptr, i32, ptr, ptr, ptr, ptr, i64, ptr, i8, i32, i32, %struct.anon, ptr, ptr, ptr, ptr, ptr, ptr, %struct.SDL_AtomicInt, %struct.SDL_AtomicInt, i8, %struct.anon.0, ptr, ptr, ptr, ptr, ptr }
%struct.anon = type { i32, i32, i32, i32, i32, i32, i32, i32, i32, i32, i32, i32, i32, i32, i32, i32, i32, i32, i32, i32, i32, i32, i32, i32, i32, i32, i32, i32, i32, [256 x i8], ptr }
%struct.SDL_AtomicInt = type { i32 }
%struct.anon.0 = type { ptr, ptr, i32, [256 x i8], ptr }
%struct.SDL_VideoData = type { i8, ptr, i32, ptr, ptr, ptr, ptr, i32, %struct.anon.9, ptr, ptr, ptr, ptr, ptr, ptr, ptr, ptr, ptr, ptr, ptr, ptr, ptr, ptr, ptr, ptr, ptr, ptr, ptr, ptr, ptr, ptr, %struct.wl_list, ptr, ptr, ptr, ptr, i32, i32, i8, i8 }
%struct.anon.9 = type { ptr }
%struct.SDL_WindowData = type { ptr, ptr, ptr, ptr, ptr, ptr, ptr, %union.anon, i32, i32, i32, i32, ptr, ptr, ptr, ptr, ptr, ptr, ptr, ptr, ptr, ptr, ptr, ptr, ptr, ptr, %struct.SDL_AtomicInt, ptr, i32, ptr, double, ptr, i32, i32, i32, i32, %struct.anon.14, %struct.anon.15, %struct.anon.16, %struct.anon.17, %struct.anon.18, %struct.anon.19, %struct.anon.20, i32, i32, i32, i64, i32, i32, i8, i8, i8, i8, i8, i8, i8, i8, i8, i8, i8, i8, i8, i8, i32, %struct.wl_list }
%union.anon = type { %struct.anon.10 }
%struct.anon.10 = type { ptr, %union.anon.11, i8 }
%union.anon.11 = type { %struct.anon.13 }
%struct.anon.13 = type { ptr, ptr }
%struct.anon.14 = type { double, double }
%struct.anon.15 = type { i32, i32, i32, i32 }
%struct.anon.16 = type { i32, i32, i32, i32 }
%struct.anon.17 = type { i32, i32 }
%struct.anon.18 = type { i32, i32 }
%struct.anon.19 = type { i32, i32 }
%struct.anon.20 = type { i32, i32, i8 }
%union.anon.22 = type { double }

@WAYLAND_wl_proxy_marshal_flags = external global ptr, align 8
@WAYLAND_wl_proxy_get_version = external global ptr, align 8
@zwp_locked_pointer_v1_interface = external constant %struct.wl_interface, align 8

; Function Attrs: inlinehint nounwind uwtable
define internal void @zwp_locked_pointer_v1_destroy(ptr noundef %0) #3 {
  %2 = alloca ptr, align 8
  store ptr %0, ptr %2, align 8
  %3 = load ptr, ptr @WAYLAND_wl_proxy_marshal_flags, align 8
  %4 = load ptr, ptr %2, align 8
  %5 = load ptr, ptr @WAYLAND_wl_proxy_get_version, align 8
  %6 = load ptr, ptr %2, align 8
  %7 = call i32 %5(ptr noundef %6)
  %8 = call ptr (ptr, i32, ptr, i32, i32, ...) %3(ptr noundef %4, i32 noundef 0, ptr noundef null, i32 noundef %7, i32 noundef 1)
  ret void
}

; Function Attrs: inlinehint nounwind uwtable
define internal void @wl_surface_commit(ptr noundef %0) #3 {
  %2 = alloca ptr, align 8
  store ptr %0, ptr %2, align 8
  %3 = load ptr, ptr @WAYLAND_wl_proxy_marshal_flags, align 8
  %4 = load ptr, ptr %2, align 8
  %5 = load ptr, ptr @WAYLAND_wl_proxy_get_version, align 8
  %6 = load ptr, ptr %2, align 8
  %7 = call i32 %5(ptr noundef %6)
  %8 = call ptr (ptr, i32, ptr, i32, i32, ...) %3(ptr noundef %4, i32 noundef 6, ptr noundef null, i32 noundef %7, i32 noundef 0)
  ret void
}

; Function Attrs: inlinehint nounwind uwtable
define internal void @zwp_locked_pointer_v1_set_cursor_position_hint(ptr noundef %0, i32 noundef %1, i32 noundef %2) #3 {
  %4 = alloca ptr, align 8
  %5 = alloca i32, align 4
  %6 = alloca i32, align 4
  store ptr %0, ptr %4, align 8
  store i32 %1, ptr %5, align 4
  store i32 %2, ptr %6, align 4
  %7 = load ptr, ptr @WAYLAND_wl_proxy_marshal_flags, align 8
  %8 = load ptr, ptr %4, align 8
  %9 = load ptr, ptr @WAYLAND_wl_proxy_get_version, align 8
  %10 = load ptr, ptr %4, align 8
  %11 = call i32 %9(ptr noundef %10)
  %12 = load i32, ptr %5, align 4
  %13 = load i32, ptr %6, align 4
  %14 = call ptr (ptr, i32, ptr, i32, i32, ...) %7(ptr noundef %8, i32 noundef 1, ptr noundef null, i32 noundef %11, i32 noundef 0, i32 noundef %12, i32 noundef %13)
  ret void
}

; Function Attrs: inlinehint nounwind uwtable
define internal i32 @wl_fixed_from_double(double noundef %0) #3 {
  %2 = alloca double, align 8
  %3 = alloca %union.anon.22, align 8
  store double %0, ptr %2, align 8
  call void @llvm.lifetime.start.p0(i64 8, ptr %3) #7
  %4 = load double, ptr %2, align 8
  %5 = fadd double %4, 0x42B8000000000000
  store double %5, ptr %3, align 8
  %6 = load i64, ptr %3, align 8
  %7 = trunc i64 %6 to i32
  call void @llvm.lifetime.end.p0(i64 8, ptr %3) #7
  ret i32 %7
}

; Function Attrs: inlinehint nounwind uwtable
define internal ptr @zwp_pointer_constraints_v1_lock_pointer(ptr noundef %0, ptr noundef %1, ptr noundef %2, ptr noundef %3, i32 noundef %4) #3 {
  %6 = alloca ptr, align 8
  %7 = alloca ptr, align 8
  %8 = alloca ptr, align 8
  %9 = alloca ptr, align 8
  %10 = alloca i32, align 4
  %11 = alloca ptr, align 8
  store ptr %0, ptr %6, align 8
  store ptr %1, ptr %7, align 8
  store ptr %2, ptr %8, align 8
  store ptr %3, ptr %9, align 8
  store i32 %4, ptr %10, align 4
  call void @llvm.lifetime.start.p0(i64 8, ptr %11) #7
  %12 = load ptr, ptr @WAYLAND_wl_proxy_marshal_flags, align 8
  %13 = load ptr, ptr %6, align 8
  %14 = load ptr, ptr @WAYLAND_wl_proxy_get_version, align 8
  %15 = load ptr, ptr %6, align 8
  %16 = call i32 %14(ptr noundef %15)
  %17 = load ptr, ptr %7, align 8
  %18 = load ptr, ptr %8, align 8
  %19 = load ptr, ptr %9, align 8
  %20 = load i32, ptr %10, align 4
  %21 = call ptr (ptr, i32, ptr, i32, i32, ...) %12(ptr noundef %13, i32 noundef 1, ptr noundef @zwp_locked_pointer_v1_interface, i32 noundef %16, i32 noundef 0, ptr noundef null, ptr noundef %17, ptr noundef %18, ptr noundef %19, i32 noundef %20)
  store ptr %21, ptr %11, align 8
  %22 = load ptr, ptr %11, align 8
  call void @llvm.lifetime.end.p0(i64 8, ptr %11) #7
  ret ptr %22
}

; Function Attrs: inlinehint nounwind uwtable
define internal void @zwp_confined_pointer_v1_destroy(ptr noundef %0) #3 {
  %2 = alloca ptr, align 8
  store ptr %0, ptr %2, align 8
  %3 = load ptr, ptr @WAYLAND_wl_proxy_marshal_flags, align 8
  %4 = load ptr, ptr %2, align 8
  %5 = load ptr, ptr @WAYLAND_wl_proxy_get_version, align 8
  %6 = load ptr, ptr %2, align 8
  %7 = call i32 %5(ptr noundef %6)
  %8 = call ptr (ptr, i32, ptr, i32, i32, ...) %3(ptr noundef %4, i32 noundef 0, ptr noundef null, i32 noundef %7, i32 noundef 1)
  ret void
}

; Function Attrs: nounwind uwtable
define hidden void @Wayland_SeatWarpMouse(ptr noundef %0, ptr noundef %1, float noundef %2, float noundef %3) #0 {
  %5 = alloca ptr, align 8
  %6 = alloca ptr, align 8
  %7 = alloca float, align 4
  %8 = alloca float, align 4
  %9 = alloca ptr, align 8
  %10 = alloca ptr, align 8
  %11 = alloca i8, align 1
  %12 = alloca i8, align 1
  %13 = alloca i32, align 4
  %14 = alloca i32, align 4
  store ptr %0, ptr %5, align 8
  store ptr %1, ptr %6, align 8
  store float %2, ptr %7, align 4
  store float %3, ptr %8, align 4
  call void @llvm.lifetime.start.p0(i64 8, ptr %9) #7
  %15 = call ptr @SDL_GetVideoDevice()
  store ptr %15, ptr %9, align 8
  call void @llvm.lifetime.start.p0(i64 8, ptr %10) #7
  %16 = load ptr, ptr %9, align 8
  %17 = getelementptr inbounds nuw %struct.SDL_VideoDevice, ptr %16, i32 0, i32 128
  %18 = load ptr, ptr %17, align 8
  store ptr %18, ptr %10, align 8
  %19 = load ptr, ptr %5, align 8
  %20 = getelementptr inbounds nuw %struct.SDL_WaylandSeat, ptr %19, i32 0, i32 9
  %21 = getelementptr inbounds nuw %struct.anon.3, ptr %20, i32 0, i32 0
  %22 = load ptr, ptr %21, align 8
  %23 = icmp ne ptr %22, null
  br i1 %23, label %24, label %114

24:                                               ; preds = %4
  call void @llvm.lifetime.start.p0(i64 1, ptr %11) #7
  %25 = load ptr, ptr %5, align 8
  %26 = getelementptr inbounds nuw %struct.SDL_WaylandSeat, ptr %25, i32 0, i32 9
  %27 = getelementptr inbounds nuw %struct.anon.3, ptr %26, i32 0, i32 4
  %28 = load ptr, ptr %27, align 8
  %29 = icmp ne ptr %28, null
  %30 = xor i1 %29, true
  %31 = zext i1 %30 to i8
  store i8 %31, ptr %11, align 1
  call void @llvm.lifetime.start.p0(i64 1, ptr %12) #7
  store i8 0, ptr %12, align 1
  %32 = load i8, ptr %11, align 1, !range !5, !noundef !6
  %33 = trunc i8 %32 to i1
  br i1 %33, label %34, label %63

34:                                               ; preds = %24
  %35 = load ptr, ptr %5, align 8
  %36 = getelementptr inbounds nuw %struct.SDL_WaylandSeat, ptr %35, i32 0, i32 9
  %37 = getelementptr inbounds nuw %struct.anon.3, ptr %36, i32 0, i32 5
  %38 = load ptr, ptr %37, align 8
  %39 = icmp ne ptr %38, null
  br i1 %39, label %40, label %48

40:                                               ; preds = %34
  %41 = load ptr, ptr %5, align 8
  %42 = getelementptr inbounds nuw %struct.SDL_WaylandSeat, ptr %41, i32 0, i32 9
  %43 = getelementptr inbounds nuw %struct.anon.3, ptr %42, i32 0, i32 5
  %44 = load ptr, ptr %43, align 8
  call void @zwp_confined_pointer_v1_destroy(ptr noundef %44)
  %45 = load ptr, ptr %5, align 8
  %46 = getelementptr inbounds nuw %struct.SDL_WaylandSeat, ptr %45, i32 0, i32 9
  %47 = getelementptr inbounds nuw %struct.anon.3, ptr %46, i32 0, i32 5
  store ptr null, ptr %47, align 8
  store i8 1, ptr %12, align 1
  br label %48

48:                                               ; preds = %40, %34
  %49 = load ptr, ptr %10, align 8
  %50 = getelementptr inbounds nuw %struct.SDL_VideoData, ptr %49, i32 0, i32 10
  %51 = load ptr, ptr %50, align 8
  %52 = load ptr, ptr %6, align 8
  %53 = getelementptr inbounds nuw %struct.SDL_WindowData, ptr %52, i32 0, i32 2
  %54 = load ptr, ptr %53, align 8
  %55 = load ptr, ptr %5, align 8
  %56 = getelementptr inbounds nuw %struct.SDL_WaylandSeat, ptr %55, i32 0, i32 9
  %57 = getelementptr inbounds nuw %struct.anon.3, ptr %56, i32 0, i32 0
  %58 = load ptr, ptr %57, align 8
  %59 = call ptr @zwp_pointer_constraints_v1_lock_pointer(ptr noundef %51, ptr noundef %54, ptr noundef %58, ptr noundef null, i32 noundef 1)
  %60 = load ptr, ptr %5, align 8
  %61 = getelementptr inbounds nuw %struct.SDL_WaylandSeat, ptr %60, i32 0, i32 9
  %62 = getelementptr inbounds nuw %struct.anon.3, ptr %61, i32 0, i32 4
  store ptr %59, ptr %62, align 8
  br label %63

63:                                               ; preds = %48, %24
  call void @llvm.lifetime.start.p0(i64 4, ptr %13) #7
  %64 = load float, ptr %7, align 4
  %65 = fpext float %64 to double
  %66 = load ptr, ptr %6, align 8
  %67 = getelementptr inbounds nuw %struct.SDL_WindowData, ptr %66, i32 0, i32 36
  %68 = getelementptr inbounds nuw %struct.anon.14, ptr %67, i32 0, i32 0
  %69 = load double, ptr %68, align 8
  %70 = fdiv double %65, %69
  %71 = call i32 @wl_fixed_from_double(double noundef %70)
  store i32 %71, ptr %13, align 4
  call void @llvm.lifetime.start.p0(i64 4, ptr %14) #7
  %72 = load float, ptr %8, align 4
  %73 = fpext float %72 to double
  %74 = load ptr, ptr %6, align 8
  %75 = getelementptr inbounds nuw %struct.SDL_WindowData, ptr %74, i32 0, i32 36
  %76 = getelementptr inbounds nuw %struct.anon.14, ptr %75, i32 0, i32 1
  %77 = load double, ptr %76, align 8
  %78 = fdiv double %73, %77
  %79 = call i32 @wl_fixed_from_double(double noundef %78)
  store i32 %79, ptr %14, align 4
  %80 = load ptr, ptr %5, align 8
  %81 = getelementptr inbounds nuw %struct.SDL_WaylandSeat, ptr %80, i32 0, i32 9
  %82 = getelementptr inbounds nuw %struct.anon.3, ptr %81, i32 0, i32 4
  %83 = load ptr, ptr %82, align 8
  %84 = load i32, ptr %13, align 4
  %85 = load i32, ptr %14, align 4
  call void @zwp_locked_pointer_v1_set_cursor_position_hint(ptr noundef %83, i32 noundef %84, i32 noundef %85)
  %86 = load ptr, ptr %6, align 8
  %87 = getelementptr inbounds nuw %struct.SDL_WindowData, ptr %86, i32 0, i32 2
  %88 = load ptr, ptr %87, align 8
  call void @wl_surface_commit(ptr noundef %88)
  %89 = load i8, ptr %11, align 1, !range !5, !noundef !6
  %90 = trunc i8 %89 to i1
  br i1 %90, label %91, label %104

91:                                               ; preds = %63
  %92 = load ptr, ptr %5, align 8
  %93 = getelementptr inbounds nuw %struct.SDL_WaylandSeat, ptr %92, i32 0, i32 9
  %94 = getelementptr inbounds nuw %struct.anon.3, ptr %93, i32 0, i32 4
  %95 = load ptr, ptr %94, align 8
  call void @zwp_locked_pointer_v1_destroy(ptr noundef %95)
  %96 = load ptr, ptr %5, align 8
  %97 = getelementptr inbounds nuw %struct.SDL_WaylandSeat, ptr %96, i32 0, i32 9
  %98 = getelementptr inbounds nuw %struct.anon.3, ptr %97, i32 0, i32 4
  store ptr null, ptr %98, align 8
  %99 = load i8, ptr %12, align 1, !range !5, !noundef !6
  %100 = trunc i8 %99 to i1
  br i1 %100, label %101, label %103

101:                                              ; preds = %91
  %102 = load ptr, ptr %5, align 8
  call void @Wayland_SeatUpdatePointerGrab(ptr noundef %102)
  br label %103

103:                                              ; preds = %101, %91
  br label %104

104:                                              ; preds = %103, %63
  %105 = load ptr, ptr %6, align 8
  %106 = getelementptr inbounds nuw %struct.SDL_WindowData, ptr %105, i32 0, i32 0
  %107 = load ptr, ptr %106, align 8
  %108 = load ptr, ptr %5, align 8
  %109 = getelementptr inbounds nuw %struct.SDL_WaylandSeat, ptr %108, i32 0, i32 9
  %110 = getelementptr inbounds nuw %struct.anon.3, ptr %109, i32 0, i32 12
  %111 = load i32, ptr %110, align 8
  %112 = load float, ptr %7, align 4
  %113 = load float, ptr %8, align 4
  call void @SDL_SendMouseMotion(i64 noundef 0, ptr noundef %107, i32 noundef %111, i1 noundef zeroext false, float noundef %112, float noundef %113)
  call void @llvm.lifetime.end.p0(i64 4, ptr %14) #7
  call void @llvm.lifetime.end.p0(i64 4, ptr %13) #7
  call void @llvm.lifetime.end.p0(i64 1, ptr %12) #7
  call void @llvm.lifetime.end.p0(i64 1, ptr %11) #7
  br label %114

114:                                              ; preds = %104, %4
  call void @llvm.lifetime.end.p0(i64 8, ptr %10) #7
  call void @llvm.lifetime.end.p0(i64 8, ptr %9) #7
  ret void
}