; Function Attrs: nounwind uwtable
define hidden void @Wayland_SeatWarpMouse(ptr noundef %0, ptr noundef readonly captures(none) %1, float noundef %2, float noundef %3) local_unnamed_addr #0 {
  %5 = tail call ptr @SDL_GetVideoDevice() #6
  %6 = getelementptr inbounds nuw i8, ptr %5, i64 1656
  %7 = load ptr, ptr %6, align 8
  %8 = getelementptr inbounds nuw i8, ptr %0, i64 272
  %9 = load ptr, ptr %8, align 8
  %.not = icmp eq ptr %9, null
  br i1 %.not, label %68, label %10

10:                                               ; preds = %4
  %11 = getelementptr inbounds nuw i8, ptr %0, i64 304
  %12 = load ptr, ptr %11, align 8
  %.not28 = icmp eq ptr %12, null
  br i1 %.not28, label %13, label %31

13:                                               ; preds = %10
  %14 = getelementptr inbounds nuw i8, ptr %0, i64 312
  %15 = load ptr, ptr %14, align 8
  %.not29 = icmp ne ptr %15, null
  br i1 %.not29, label %16, label %21

16:                                               ; preds = %13
  %17 = load ptr, ptr @WAYLAND_wl_proxy_marshal_flags, align 8
  %18 = load ptr, ptr @WAYLAND_wl_proxy_get_version, align 8
  %19 = tail call i32 %18(ptr noundef nonnull %15) #6
  %20 = tail call ptr (ptr, i32, ptr, i32, i32, ...) %17(ptr noundef nonnull %15, i32 noundef 0, ptr noundef null, i32 noundef %19, i32 noundef 1) #6
  store ptr null, ptr %14, align 8
  %.pre = load ptr, ptr %8, align 8
  br label %21

21:                                               ; preds = %16, %13
  %22 = phi ptr [ %.pre, %16 ], [ %9, %13 ]
  %23 = getelementptr inbounds nuw i8, ptr %7, i64 80
  %24 = load ptr, ptr %23, align 8
  %25 = getelementptr inbounds nuw i8, ptr %1, i64 16
  %26 = load ptr, ptr %25, align 8
  %27 = load ptr, ptr @WAYLAND_wl_proxy_marshal_flags, align 8
  %28 = load ptr, ptr @WAYLAND_wl_proxy_get_version, align 8
  %29 = tail call i32 %28(ptr noundef %24) #6
  %30 = tail call ptr (ptr, i32, ptr, i32, i32, ...) %27(ptr noundef %24, i32 noundef 1, ptr noundef nonnull @zwp_locked_pointer_v1_interface, i32 noundef %29, i32 noundef 0, ptr noundef null, ptr noundef %26, ptr noundef %22, ptr noundef null, i32 noundef 1) #6
  store ptr %30, ptr %11, align 8
  br label %31

31:                                               ; preds = %21, %10
  %32 = phi ptr [ %30, %21 ], [ %12, %10 ]
  %.0 = phi i1 [ %.not29, %21 ], [ false, %10 ]
  %33 = fpext float %2 to double
  %34 = getelementptr inbounds nuw i8, ptr %1, i64 280
  %35 = load double, ptr %34, align 8
  %36 = fdiv double %33, %35
  %37 = fadd double %36, 0x42B8000000000000
  %38 = bitcast double %37 to i64
  %39 = trunc i64 %38 to i32
  %40 = fpext float %3 to double
  %41 = getelementptr inbounds nuw i8, ptr %1, i64 288
  %42 = load double, ptr %41, align 8
  %43 = fdiv double %40, %42
  %44 = fadd double %43, 0x42B8000000000000
  %45 = bitcast double %44 to i64
  %46 = trunc i64 %45 to i32
  %47 = load ptr, ptr @WAYLAND_wl_proxy_marshal_flags, align 8
  %48 = load ptr, ptr @WAYLAND_wl_proxy_get_version, align 8
  %49 = tail call i32 %48(ptr noundef %32) #6
  %50 = tail call ptr (ptr, i32, ptr, i32, i32, ...) %47(ptr noundef %32, i32 noundef 1, ptr noundef null, i32 noundef %49, i32 noundef 0, i32 noundef %39, i32 noundef %46) #6
  %51 = getelementptr inbounds nuw i8, ptr %1, i64 16
  %52 = load ptr, ptr %51, align 8
  %53 = load ptr, ptr @WAYLAND_wl_proxy_marshal_flags, align 8
  %54 = load ptr, ptr @WAYLAND_wl_proxy_get_version, align 8
  %55 = tail call i32 %54(ptr noundef %52) #6
  %56 = tail call ptr (ptr, i32, ptr, i32, i32, ...) %53(ptr noundef %52, i32 noundef 6, ptr noundef null, i32 noundef %55, i32 noundef 0) #6
  br i1 %.not28, label %57, label %64

57:                                               ; preds = %31
  %58 = load ptr, ptr %11, align 8
  %59 = load ptr, ptr @WAYLAND_wl_proxy_marshal_flags, align 8
  %60 = load ptr, ptr @WAYLAND_wl_proxy_get_version, align 8
  %61 = tail call i32 %60(ptr noundef %58) #6
  %62 = tail call ptr (ptr, i32, ptr, i32, i32, ...) %59(ptr noundef %58, i32 noundef 0, ptr noundef null, i32 noundef %61, i32 noundef 1) #6
  store ptr null, ptr %11, align 8
  br i1 %.0, label %63, label %64

63:                                               ; preds = %57
  tail call void @Wayland_SeatUpdatePointerGrab(ptr noundef nonnull %0) #6
  br label %64

64:                                               ; preds = %57, %63, %31
  %65 = load ptr, ptr %1, align 8
  %66 = getelementptr inbounds nuw i8, ptr %0, i64 360
  %67 = load i32, ptr %66, align 8
  tail call void @SDL_SendMouseMotion(i64 noundef 0, ptr noundef %65, i32 noundef %67, i1 noundef zeroext false, float noundef %2, float noundef %3) #6
  br label %68

68:                                               ; preds = %64, %4
  ret void
}